; Function Attrs: mustprogress uwtable
define noundef double @_ZNK15neuralnetworkCV10denseLayer22computeGradientElementERKSt6vectorIdSaIdEEmm(ptr noundef nonnull align 8 dereferenceable(128) %0, ptr noundef nonnull readonly align 8 captures(none) dereferenceable(24) %1, i64 noundef %2, i64 noundef %3) local_unnamed_addr #16 align 2 {
  %5 = alloca double, align 8
  %6 = load i64, ptr %0, align 8, !tbaa !91
  %.not = icmp eq i64 %6, 0
  br i1 %.not, label %._crit_edge, label %.lr.ph

.lr.ph:                                           ; preds = %4
  %7 = load ptr, ptr %1, align 8, !tbaa !41
  %8 = getelementptr inbounds nuw i8, ptr %0, i64 80
  %9 = load ptr, ptr %8, align 8, !tbaa !45
  %10 = getelementptr inbounds nuw %"class.std::vector.37", ptr %9, i64 %2
  %11 = load ptr, ptr %10, align 8, !tbaa !41
  br label %31

._crit_edge:                                      ; preds = %31, %4
  %.0.lcssa = phi double [ 0.000000e+00, %4 ], [ %36, %31 ]
  %12 = getelementptr inbounds nuw i8, ptr %0, i64 104
  %13 = load ptr, ptr %12, align 8, !tbaa !41
  %14 = getelementptr inbounds nuw double, ptr %13, i64 %2
  %15 = load double, ptr %14, align 8, !tbaa !21
  %16 = fadd double %.0.lcssa, %15
  call void @llvm.lifetime.start.p0(i64 8, ptr nonnull %5)
  store double %16, ptr %5, align 8, !tbaa !21
  %17 = getelementptr inbounds nuw i8, ptr %0, i64 64
  %18 = load ptr, ptr %17, align 8, !tbaa !4
  %.not.i.i = icmp eq ptr %18, null
  br i1 %.not.i.i, label %19, label %_ZNKSt8functionIFddEEclEd.exit

19:                                               ; preds = %._crit_edge
  tail call void @_ZSt25__throw_bad_function_callv() #35
  unreachable

_ZNKSt8functionIFddEEclEd.exit:                   ; preds = %._crit_edge
  %20 = getelementptr inbounds nuw i8, ptr %0, i64 48
  %21 = getelementptr inbounds nuw i8, ptr %0, i64 72
  %22 = load ptr, ptr %21, align 8, !tbaa !26
  %23 = call noundef double %22(ptr noundef nonnull align 8 dereferenceable(32) %20, ptr noundef nonnull align 8 dereferenceable(8) %5)
  call void @llvm.lifetime.end.p0(i64 8, ptr nonnull %5)
  %24 = getelementptr inbounds nuw i8, ptr %0, i64 80
  %25 = load ptr, ptr %24, align 8, !tbaa !45
  %26 = getelementptr inbounds nuw %"class.std::vector.37", ptr %25, i64 %2
  %27 = load ptr, ptr %26, align 8, !tbaa !41
  %28 = getelementptr inbounds nuw double, ptr %27, i64 %3
  %29 = load double, ptr %28, align 8, !tbaa !21
  %30 = fmul double %23, %29
  ret double %30

31:                                               ; preds = %.lr.ph, %31
  %.015 = phi double [ 0.000000e+00, %.lr.ph ], [ %36, %31 ]
  %.01314 = phi i64 [ 0, %.lr.ph ], [ %37, %31 ]
  %32 = getelementptr inbounds nuw double, ptr %7, i64 %.01314
  %33 = load double, ptr %32, align 8, !tbaa !21
  %34 = getelementptr inbounds nuw double, ptr %11, i64 %.01314
  %35 = load double, ptr %34, align 8, !tbaa !21
  %36 = tail call double @llvm.fmuladd.f64(double %33, double %35, double %.015)
  %37 = add nuw i64 %.01314, 1
  %exitcond.not = icmp eq i64 %37, %6
  br i1 %exitcond.not, label %._crit_edge, label %31, !llvm.loop !114
}